target datalayout = "e-m:e-p270:32:32-p271:32:32-p272:64:64-i64:64-i128:128-f80:128-n8:16:32:64-S128"
target triple = "x86_64-pc-linux-gnu"

%struct.opj_t1 = type { %struct.opj_mqc, ptr, ptr, i32, i32, i32, i32, i32, i32, ptr, i32 }
%struct.opj_mqc = type { i32, i32, i32, i32, ptr, ptr, ptr, [19 x ptr], ptr, ptr, [2 x i8] }

; Function Attrs: nounwind uwtable
define internal i32 @opj_t1_allocate_buffers(ptr noundef %0, i32 noundef %1, i32 noundef %2) #0 {
  %4 = alloca i32, align 4
  %5 = alloca ptr, align 8
  %6 = alloca i32, align 4
  %7 = alloca i32, align 4
  %8 = alloca i32, align 4
  %9 = alloca i32, align 4
  %10 = alloca i32, align 4
  %11 = alloca i32, align 4
  %12 = alloca ptr, align 8
  %13 = alloca i32, align 4
  %14 = alloca i32, align 4
  %15 = alloca i32, align 4
  store ptr %0, ptr %5, align 8, !tbaa !7
  store i32 %1, ptr %6, align 4, !tbaa !3
  store i32 %2, ptr %7, align 4, !tbaa !3
  call void @llvm.lifetime.start.p0(i64 4, ptr %8) #10
  call void @llvm.lifetime.start.p0(i64 4, ptr %9) #10
  call void @llvm.lifetime.start.p0(i64 4, ptr %10) #10
  %16 = load i32, ptr %6, align 4, !tbaa !3
  %17 = load i32, ptr %7, align 4, !tbaa !3
  %18 = mul i32 %16, %17
  store i32 %18, ptr %10, align 4, !tbaa !3
  %19 = load i32, ptr %10, align 4, !tbaa !3
  %20 = load ptr, ptr %5, align 8, !tbaa !7
  %21 = getelementptr inbounds nuw %struct.opj_t1, ptr %20, i32 0, i32 5
  %22 = load i32, ptr %21, align 8, !tbaa !208
  %23 = icmp ugt i32 %19, %22
  br i1 %23, label %24, label %43

24:                                               ; preds = %3
  %25 = load ptr, ptr %5, align 8, !tbaa !7
  %26 = getelementptr inbounds nuw %struct.opj_t1, ptr %25, i32 0, i32 1
  %27 = load ptr, ptr %26, align 8, !tbaa !17
  call void @opj_aligned_free(ptr noundef %27)
  %28 = load i32, ptr %10, align 4, !tbaa !3
  %29 = zext i32 %28 to i64
  %30 = mul i64 %29, 4
  %31 = call ptr @opj_aligned_malloc(i64 noundef %30)
  %32 = load ptr, ptr %5, align 8, !tbaa !7
  %33 = getelementptr inbounds nuw %struct.opj_t1, ptr %32, i32 0, i32 1
  store ptr %31, ptr %33, align 8, !tbaa !17
  %34 = load ptr, ptr %5, align 8, !tbaa !7
  %35 = getelementptr inbounds nuw %struct.opj_t1, ptr %34, i32 0, i32 1
  %36 = load ptr, ptr %35, align 8, !tbaa !17
  %37 = icmp ne ptr %36, null
  br i1 %37, label %39, label %38

38:                                               ; preds = %24
  store i32 0, ptr %4, align 4
  store i32 1, ptr %11, align 4
  br label %56

39:                                               ; preds = %24
  %40 = load i32, ptr %10, align 4, !tbaa !3
  %41 = load ptr, ptr %5, align 8, !tbaa !7
  %42 = getelementptr inbounds nuw %struct.opj_t1, ptr %41, i32 0, i32 5
  store i32 %40, ptr %42, align 8, !tbaa !208
  br label %43

43:                                               ; preds = %39, %3
  %44 = load ptr, ptr %5, align 8, !tbaa !7
  %45 = getelementptr inbounds nuw %struct.opj_t1, ptr %44, i32 0, i32 1
  %46 = load ptr, ptr %45, align 8, !tbaa !17
  %47 = icmp ne ptr %46, null
  br i1 %47, label %48, label %55

48:                                               ; preds = %43
  %49 = load ptr, ptr %5, align 8, !tbaa !7
  %50 = getelementptr inbounds nuw %struct.opj_t1, ptr %49, i32 0, i32 1
  %51 = load ptr, ptr %50, align 8, !tbaa !17
  %52 = load i32, ptr %10, align 4, !tbaa !3
  %53 = zext i32 %52 to i64
  %54 = mul i64 %53, 4
  call void @llvm.memset.p0.i64(ptr align 4 %51, i8 0, i64 %54, i1 false)
  br label %55

55:                                               ; preds = %48, %43
  store i32 0, ptr %11, align 4
  br label %56

56:                                               ; preds = %55, %38
  call void @llvm.lifetime.end.p0(i64 4, ptr %10) #10
  %57 = load i32, ptr %11, align 4
  switch i32 %57, label %194 [
    i32 0, label %58
  ]

58:                                               ; preds = %56
  %59 = load i32, ptr %6, align 4, !tbaa !3
  %60 = add i32 %59, 2
  store i32 %60, ptr %9, align 4, !tbaa !3
  %61 = load i32, ptr %7, align 4, !tbaa !3
  %62 = add i32 %61, 3
  %63 = udiv i32 %62, 4
  %64 = add i32 %63, 2
  store i32 %64, ptr %8, align 4, !tbaa !3
  %65 = load i32, ptr %9, align 4, !tbaa !3
  %66 = load i32, ptr %8, align 4, !tbaa !3
  %67 = mul i32 %66, %65
  store i32 %67, ptr %8, align 4, !tbaa !3
  call void @llvm.lifetime.start.p0(i64 8, ptr %12) #10
  call void @llvm.lifetime.start.p0(i64 4, ptr %13) #10
  call void @llvm.lifetime.start.p0(i64 4, ptr %14) #10
  %68 = load i32, ptr %7, align 4, !tbaa !3
  %69 = add i32 %68, 3
  %70 = udiv i32 %69, 4
  store i32 %70, ptr %14, align 4, !tbaa !3
  %71 = load i32, ptr %8, align 4, !tbaa !3
  %72 = load ptr, ptr %5, align 8, !tbaa !7
  %73 = getelementptr inbounds nuw %struct.opj_t1, ptr %72, i32 0, i32 6
  %74 = load i32, ptr %73, align 4, !tbaa !209
  %75 = icmp ugt i32 %71, %74
  br i1 %75, label %76, label %92

76:                                               ; preds = %58
  %77 = load ptr, ptr %5, align 8, !tbaa !7
  %78 = getelementptr inbounds nuw %struct.opj_t1, ptr %77, i32 0, i32 2
  %79 = load ptr, ptr %78, align 8, !tbaa !18
  call void @opj_aligned_free(ptr noundef %79)
  %80 = load i32, ptr %8, align 4, !tbaa !3
  %81 = zext i32 %80 to i64
  %82 = mul i64 %81, 4
  %83 = call ptr @opj_aligned_malloc(i64 noundef %82)
  %84 = load ptr, ptr %5, align 8, !tbaa !7
  %85 = getelementptr inbounds nuw %struct.opj_t1, ptr %84, i32 0, i32 2
  store ptr %83, ptr %85, align 8, !tbaa !18
  %86 = load ptr, ptr %5, align 8, !tbaa !7
  %87 = getelementptr inbounds nuw %struct.opj_t1, ptr %86, i32 0, i32 2
  %88 = load ptr, ptr %87, align 8, !tbaa !18
  %89 = icmp ne ptr %88, null
  br i1 %89, label %91, label %90

90:                                               ; preds = %76
  store i32 0, ptr %4, align 4
  store i32 1, ptr %11, align 4
  br label %185

91:                                               ; preds = %76
  br label %92

92:                                               ; preds = %91, %58
  %93 = load i32, ptr %8, align 4, !tbaa !3
  %94 = load ptr, ptr %5, align 8, !tbaa !7
  %95 = getelementptr inbounds nuw %struct.opj_t1, ptr %94, i32 0, i32 6
  store i32 %93, ptr %95, align 4, !tbaa !209
  %96 = load ptr, ptr %5, align 8, !tbaa !7
  %97 = getelementptr inbounds nuw %struct.opj_t1, ptr %96, i32 0, i32 2
  %98 = load ptr, ptr %97, align 8, !tbaa !18
  %99 = load i32, ptr %8, align 4, !tbaa !3
  %100 = zext i32 %99 to i64
  %101 = mul i64 %100, 4
  call void @llvm.memset.p0.i64(ptr align 4 %98, i8 0, i64 %101, i1 false)
  %102 = load ptr, ptr %5, align 8, !tbaa !7
  %103 = getelementptr inbounds nuw %struct.opj_t1, ptr %102, i32 0, i32 2
  %104 = load ptr, ptr %103, align 8, !tbaa !18
  %105 = getelementptr inbounds i32, ptr %104, i64 0
  store ptr %105, ptr %12, align 8, !tbaa !22
  store i32 0, ptr %13, align 4, !tbaa !3
  br label %106

106:                                              ; preds = %113, %92
  %107 = load i32, ptr %13, align 4, !tbaa !3
  %108 = load i32, ptr %9, align 4, !tbaa !3
  %109 = icmp ult i32 %107, %108
  br i1 %109, label %110, label %116

110:                                              ; preds = %106
  %111 = load ptr, ptr %12, align 8, !tbaa !22
  %112 = getelementptr inbounds nuw i32, ptr %111, i32 1
  store ptr %112, ptr %12, align 8, !tbaa !22
  store i32 1226833920, ptr %111, align 4, !tbaa !3
  br label %113

113:                                              ; preds = %110
  %114 = load i32, ptr %13, align 4, !tbaa !3
  %115 = add i32 %114, 1
  store i32 %115, ptr %13, align 4, !tbaa !3
  br label %106, !llvm.loop !210

116:                                              ; preds = %106
  %117 = load ptr, ptr %5, align 8, !tbaa !7
  %118 = getelementptr inbounds nuw %struct.opj_t1, ptr %117, i32 0, i32 2
  %119 = load ptr, ptr %118, align 8, !tbaa !18
  %120 = load i32, ptr %14, align 4, !tbaa !3
  %121 = add i32 %120, 1
  %122 = load i32, ptr %9, align 4, !tbaa !3
  %123 = mul i32 %121, %122
  %124 = zext i32 %123 to i64
  %125 = getelementptr inbounds nuw i32, ptr %119, i64 %124
  store ptr %125, ptr %12, align 8, !tbaa !22
  store i32 0, ptr %13, align 4, !tbaa !3
  br label %126

126:                                              ; preds = %133, %116
  %127 = load i32, ptr %13, align 4, !tbaa !3
  %128 = load i32, ptr %9, align 4, !tbaa !3
  %129 = icmp ult i32 %127, %128
  br i1 %129, label %130, label %136

130:                                              ; preds = %126
  %131 = load ptr, ptr %12, align 8, !tbaa !22
  %132 = getelementptr inbounds nuw i32, ptr %131, i32 1
  store ptr %132, ptr %12, align 8, !tbaa !22
  store i32 1226833920, ptr %131, align 4, !tbaa !3
  br label %133

133:                                              ; preds = %130
  %134 = load i32, ptr %13, align 4, !tbaa !3
  %135 = add i32 %134, 1
  store i32 %135, ptr %13, align 4, !tbaa !3
  br label %126, !llvm.loop !211

136:                                              ; preds = %126
  %137 = load i32, ptr %7, align 4, !tbaa !3
  %138 = urem i32 %137, 4
  %139 = icmp ne i32 %138, 0
  br i1 %139, label %140, label %184

140:                                              ; preds = %136
  call void @llvm.lifetime.start.p0(i64 4, ptr %15) #10
  store i32 0, ptr %15, align 4, !tbaa !3
  %141 = load ptr, ptr %5, align 8, !tbaa !7
  %142 = getelementptr inbounds nuw %struct.opj_t1, ptr %141, i32 0, i32 2
  %143 = load ptr, ptr %142, align 8, !tbaa !18
  %144 = load i32, ptr %14, align 4, !tbaa !3
  %145 = load i32, ptr %9, align 4, !tbaa !3
  %146 = mul i32 %144, %145
  %147 = zext i32 %146 to i64
  %148 = getelementptr inbounds nuw i32, ptr %143, i64 %147
  store ptr %148, ptr %12, align 8, !tbaa !22
  %149 = load i32, ptr %7, align 4, !tbaa !3
  %150 = urem i32 %149, 4
  %151 = icmp eq i32 %150, 1
  br i1 %151, label %152, label %155

152:                                              ; preds = %140
  %153 = load i32, ptr %15, align 4, !tbaa !3
  %154 = or i32 %153, 1224736768
  store i32 %154, ptr %15, align 4, !tbaa !3
  br label %171

155:                                              ; preds = %140
  %156 = load i32, ptr %7, align 4, !tbaa !3
  %157 = urem i32 %156, 4
  %158 = icmp eq i32 %157, 2
  br i1 %158, label %159, label %162

159:                                              ; preds = %155
  %160 = load i32, ptr %15, align 4, !tbaa !3
  %161 = or i32 %160, 1207959552
  store i32 %161, ptr %15, align 4, !tbaa !3
  br label %170

162:                                              ; preds = %155
  %163 = load i32, ptr %7, align 4, !tbaa !3
  %164 = urem i32 %163, 4
  %165 = icmp eq i32 %164, 3
  br i1 %165, label %166, label %169

166:                                              ; preds = %162
  %167 = load i32, ptr %15, align 4, !tbaa !3
  %168 = or i32 %167, 1073741824
  store i32 %168, ptr %15, align 4, !tbaa !3
  br label %169

169:                                              ; preds = %166, %162
  br label %170

170:                                              ; preds = %169, %159
  br label %171

171:                                              ; preds = %170, %152
  store i32 0, ptr %13, align 4, !tbaa !3
  br label %172

172:                                              ; preds = %180, %171
  %173 = load i32, ptr %13, align 4, !tbaa !3
  %174 = load i32, ptr %9, align 4, !tbaa !3
  %175 = icmp ult i32 %173, %174
  br i1 %175, label %176, label %183

176:                                              ; preds = %172
  %177 = load i32, ptr %15, align 4, !tbaa !3
  %178 = load ptr, ptr %12, align 8, !tbaa !22
  %179 = getelementptr inbounds nuw i32, ptr %178, i32 1
  store ptr %179, ptr %12, align 8, !tbaa !22
  store i32 %177, ptr %178, align 4, !tbaa !3
  br label %180

180:                                              ; preds = %176
  %181 = load i32, ptr %13, align 4, !tbaa !3
  %182 = add i32 %181, 1
  store i32 %182, ptr %13, align 4, !tbaa !3
  br label %172, !llvm.loop !212

183:                                              ; preds = %172
  call void @llvm.lifetime.end.p0(i64 4, ptr %15) #10
  br label %184

184:                                              ; preds = %183, %136
  store i32 0, ptr %11, align 4
  br label %185

185:                                              ; preds = %184, %90
  call void @llvm.lifetime.end.p0(i64 4, ptr %14) #10
  call void @llvm.lifetime.end.p0(i64 4, ptr %13) #10
  call void @llvm.lifetime.end.p0(i64 8, ptr %12) #10
  %186 = load i32, ptr %11, align 4
  switch i32 %186, label %194 [
    i32 0, label %187
  ]

187:                                              ; preds = %185
  %188 = load i32, ptr %6, align 4, !tbaa !3
  %189 = load ptr, ptr %5, align 8, !tbaa !7
  %190 = getelementptr inbounds nuw %struct.opj_t1, ptr %189, i32 0, i32 3
  store i32 %188, ptr %190, align 8, !tbaa !109
  %191 = load i32, ptr %7, align 4, !tbaa !3
  %192 = load ptr, ptr %5, align 8, !tbaa !7
  %193 = getelementptr inbounds nuw %struct.opj_t1, ptr %192, i32 0, i32 4
  store i32 %191, ptr %193, align 4, !tbaa !110
  store i32 1, ptr %4, align 4
  store i32 1, ptr %11, align 4
  br label %194

194:                                              ; preds = %187, %185, %56
  call void @llvm.lifetime.end.p0(i64 4, ptr %9) #10
  call void @llvm.lifetime.end.p0(i64 4, ptr %8) #10
  %195 = load i32, ptr %4, align 4
  ret i32 %195
}