; Function Attrs: nounwind uwtable
define internal fastcc range(i32 0, 2) i32 @opj_t1_allocate_buffers(ptr noundef captures(none) %0, i32 noundef %1, i32 noundef %2) unnamed_addr #0 {
  %4 = mul i32 %2, %1
  %5 = getelementptr inbounds nuw i8, ptr %0, i64 240
  %6 = load i32, ptr %5, align 8, !tbaa !300
  %7 = icmp ugt i32 %4, %6
  %8 = getelementptr inbounds nuw i8, ptr %0, i64 216
  %9 = load ptr, ptr %8, align 8, !tbaa !14
  br i1 %7, label %10, label %14

10:                                               ; preds = %3
  tail call void @opj_aligned_free(ptr noundef %9) #12
  %11 = zext i32 %4 to i64
  %12 = shl nuw nsw i64 %11, 2
  %13 = tail call ptr @opj_aligned_malloc(i64 noundef %12) #12
  store ptr %13, ptr %8, align 8, !tbaa !14
  %.not = icmp eq ptr %13, null
  br i1 %.not, label %.critedge, label %.thread

.thread:                                          ; preds = %10
  store i32 %4, ptr %5, align 8, !tbaa !300
  br label %15

14:                                               ; preds = %3
  %.not76 = icmp eq ptr %9, null
  br i1 %.not76, label %19, label %15

15:                                               ; preds = %.thread, %14
  %16 = phi ptr [ %13, %.thread ], [ %9, %14 ]
  %17 = zext i32 %4 to i64
  %18 = shl nuw nsw i64 %17, 2
  tail call void @llvm.memset.p0.i64(ptr nonnull align 4 %16, i8 0, i64 %18, i1 false)
  br label %19

19:                                               ; preds = %15, %14
  %20 = add i32 %1, 2
  %21 = add i32 %2, 3
  %22 = lshr i32 %21, 2
  %23 = add nuw nsw i32 %22, 2
  %24 = mul i32 %23, %20
  %25 = getelementptr inbounds nuw i8, ptr %0, i64 244
  %26 = load i32, ptr %25, align 4, !tbaa !301
  %27 = icmp ugt i32 %24, %26
  %28 = getelementptr inbounds nuw i8, ptr %0, i64 224
  %29 = load ptr, ptr %28, align 8, !tbaa !15
  br i1 %27, label %30, label %._crit_edge100

._crit_edge100:                                   ; preds = %19
  %.pre103 = zext i32 %24 to i64
  %.pre104 = shl nuw nsw i64 %.pre103, 2
  br label %34

30:                                               ; preds = %19
  tail call void @opj_aligned_free(ptr noundef %29) #12
  %31 = zext i32 %24 to i64
  %32 = shl nuw nsw i64 %31, 2
  %33 = tail call ptr @opj_aligned_malloc(i64 noundef %32) #12
  store ptr %33, ptr %28, align 8, !tbaa !15
  %.not77 = icmp eq ptr %33, null
  br i1 %.not77, label %.critedge, label %34

34:                                               ; preds = %._crit_edge100, %30
  %.pre-phi105 = phi i64 [ %.pre104, %._crit_edge100 ], [ %32, %30 ]
  %35 = phi ptr [ %29, %._crit_edge100 ], [ %33, %30 ]
  store i32 %24, ptr %25, align 4, !tbaa !301
  %36 = getelementptr inbounds nuw i8, ptr %0, i64 224
  tail call void @llvm.memset.p0.i64(ptr align 4 %35, i8 0, i64 %.pre-phi105, i1 false)
  %37 = load ptr, ptr %36, align 8, !tbaa !15
  %.not94 = icmp eq i32 %20, 0
  br i1 %.not94, label %.loopexit, label %.lr.ph

.lr.ph:                                           ; preds = %34, %.lr.ph
  %.06384 = phi i32 [ %39, %.lr.ph ], [ 0, %34 ]
  %.06683 = phi ptr [ %38, %.lr.ph ], [ %37, %34 ]
  %38 = getelementptr inbounds nuw i8, ptr %.06683, i64 4
  store i32 1226833920, ptr %.06683, align 4, !tbaa !59
  %39 = add nuw i32 %.06384, 1
  %exitcond.not = icmp eq i32 %39, %20
  br i1 %exitcond.not, label %.lr.ph88.preheader, label %.lr.ph, !llvm.loop !302

.lr.ph88.preheader:                               ; preds = %.lr.ph
  %40 = add nuw nsw i32 %22, 1
  %41 = mul i32 %40, %20
  %42 = zext i32 %41 to i64
  %43 = getelementptr inbounds nuw i32, ptr %37, i64 %42
  br label %.lr.ph88

.lr.ph88:                                         ; preds = %.lr.ph88.preheader, %.lr.ph88
  %.16486 = phi i32 [ %45, %.lr.ph88 ], [ 0, %.lr.ph88.preheader ]
  %.16785 = phi ptr [ %44, %.lr.ph88 ], [ %43, %.lr.ph88.preheader ]
  %44 = getelementptr inbounds nuw i8, ptr %.16785, i64 4
  store i32 1226833920, ptr %.16785, align 4, !tbaa !59
  %45 = add nuw i32 %.16486, 1
  %exitcond97.not = icmp eq i32 %45, %20
  br i1 %exitcond97.not, label %._crit_edge89.thread, label %.lr.ph88, !llvm.loop !303

._crit_edge89.thread:                             ; preds = %.lr.ph88
  %46 = and i32 %2, 3
  %.not78107 = icmp eq i32 %46, 0
  br i1 %.not78107, label %.loopexit, label %.lr.ph93.preheader

.lr.ph93.preheader:                               ; preds = %._crit_edge89.thread
  %switch.selectcmp109 = icmp eq i32 %46, 2
  %switch.select110 = select i1 %switch.selectcmp109, i32 1207959552, i32 1073741824
  %switch.selectcmp81111 = icmp eq i32 %46, 1
  %switch.select82112 = select i1 %switch.selectcmp81111, i32 1224736768, i32 %switch.select110
  %47 = mul i32 %22, %20
  %48 = zext i32 %47 to i64
  %49 = getelementptr inbounds nuw i32, ptr %37, i64 %48
  br label %.lr.ph93

.lr.ph93:                                         ; preds = %.lr.ph93.preheader, %.lr.ph93
  %.26591 = phi i32 [ %51, %.lr.ph93 ], [ 0, %.lr.ph93.preheader ]
  %.26890 = phi ptr [ %50, %.lr.ph93 ], [ %49, %.lr.ph93.preheader ]
  %50 = getelementptr inbounds nuw i8, ptr %.26890, i64 4
  store i32 %switch.select82112, ptr %.26890, align 4, !tbaa !59
  %51 = add nuw i32 %.26591, 1
  %exitcond98.not = icmp eq i32 %51, %20
  br i1 %exitcond98.not, label %.loopexit, label %.lr.ph93, !llvm.loop !304

.loopexit:                                        ; preds = %.lr.ph93, %34, %._crit_edge89.thread
  %52 = getelementptr inbounds nuw i8, ptr %0, i64 232
  store i32 %1, ptr %52, align 8, !tbaa !104
  %53 = getelementptr inbounds nuw i8, ptr %0, i64 236
  store i32 %2, ptr %53, align 4, !tbaa !105
  br label %.critedge

.critedge:                                        ; preds = %30, %10, %.loopexit
  %.1 = phi i32 [ 1, %.loopexit ], [ 0, %10 ], [ 0, %30 ]
  ret i32 %.1
}